; Function Attrs: mustprogress nofree norecurse nosync nounwind willreturn memory(read, inaccessiblemem: none) uwtable
define hidden noundef ptr @_ZN12Continuation29get_continuation_entry_for_spEP10JavaThreadPl(ptr nocapture noundef readonly %0, ptr noundef readnone %1) local_unnamed_addr #3 align 2 {
  %3 = getelementptr inbounds i8, ptr %0, i64 1336
  br label %4

4:                                                ; preds = %4, %2
  %.0.in = phi ptr [ %3, %2 ], [ %6, %4 ]
  %.0 = load ptr, ptr %.0.in, align 8
  %.not = icmp eq ptr %.0, null
  %5 = icmp ugt ptr %.0, %1
  %or.cond = or i1 %.not, %5
  %6 = getelementptr inbounds i8, ptr %.0, i64 8
  br i1 %or.cond, label %.critedge, label %4, !llvm.loop !13

.critedge:                                        ; preds = %4
  ret ptr %.0
}